target datalayout = "e-m:e-p270:32:32-p271:32:32-p272:64:64-i64:64-i128:128-f80:128-n8:16:32:64-S128"
target triple = "x86_64-pc-linux-gnu"

%class.JVMState = type { ptr, i32, i32, i32, i32, i32, i32, i32, i32, i32, ptr, ptr }
%class.MultiNode.base = type { %class.Node.base }
%class.Node.base = type <{ ptr, ptr, ptr, i32, i32, i32, i32, i32, i32, i32 }>
%class.ReplacedNodes = type { ptr }
%class.Node = type <{ ptr, ptr, ptr, i32, i32, i32, i32, i32, i32, i32, [4 x i8] }>
%class.CallNode = type { %class.SafePointNode.base, ptr, ptr, float, ptr, ptr }
%class.SafePointNode.base = type <{ %class.MultiNode.base, [4 x i8], ptr, ptr, %class.ReplacedNodes, i8 }>
%class.CodeBlob = type <{ ptr, ptr, ptr, i32, i32, i32, i32, i32, i32, i16, i16, i8, i8, [2 x i8] }>

@_ZN13SharedRuntime19_uncommon_trap_blobE = external global ptr, align 8

; Function Attrs: mustprogress nounwind uwtable
define linkonce_odr hidden noundef ptr @_ZNK8CodeBlob12header_beginEv(ptr noundef nonnull align 8 dereferenceable(54) %0) #1 comdat align 2 {
  %2 = alloca ptr, align 8
  store ptr %0, ptr %2, align 8
  %3 = load ptr, ptr %2, align 8
  ret ptr %3
}

; Function Attrs: mustprogress nounwind uwtable
define linkonce_odr hidden noundef ptr @_ZNK8CodeBlob10code_beginEv(ptr noundef nonnull align 8 dereferenceable(54) %0) #1 comdat align 2 {
  %2 = alloca ptr, align 8
  store ptr %0, ptr %2, align 8
  %3 = load ptr, ptr %2, align 8
  %4 = call noundef ptr @_ZNK8CodeBlob12header_beginEv(ptr noundef nonnull align 8 dereferenceable(54) %3)
  %5 = getelementptr inbounds %class.CodeBlob, ptr %3, i32 0, i32 6
  %6 = load i32, ptr %5, align 4
  %7 = sext i32 %6 to i64
  %8 = getelementptr inbounds i8, ptr %4, i64 %7
  ret ptr %8
}

; Function Attrs: mustprogress nounwind uwtable
define linkonce_odr hidden noundef ptr @_ZN13SingletonBlob11entry_pointEv(ptr noundef nonnull align 8 dereferenceable(54) %0) #1 comdat align 2 {
  %2 = alloca ptr, align 8
  store ptr %0, ptr %2, align 8
  %3 = load ptr, ptr %2, align 8
  %4 = call noundef ptr @_ZNK8CodeBlob10code_beginEv(ptr noundef nonnull align 8 dereferenceable(54) %3)
  ret ptr %4
}

; Function Attrs: mustprogress nounwind uwtable
define linkonce_odr hidden noundef ptr @_ZN13SharedRuntime18uncommon_trap_blobEv() #1 comdat align 2 {
  %1 = load ptr, ptr @_ZN13SharedRuntime19_uncommon_trap_blobE, align 8
  ret ptr %1
}

; Function Attrs: mustprogress nounwind uwtable
define linkonce_odr hidden noundef ptr @_ZNK8CallNode11entry_pointEv(ptr noundef nonnull align 8 dereferenceable(128) %0) #1 comdat align 2 {
  %2 = alloca ptr, align 8
  store ptr %0, ptr %2, align 8
  %3 = load ptr, ptr %2, align 8
  %4 = getelementptr inbounds %class.CallNode, ptr %3, i32 0, i32 2
  %5 = load ptr, ptr %4, align 8
  ret ptr %5
}

; Function Attrs: mustprogress nounwind uwtable
define linkonce_odr hidden noundef ptr @_ZNK4Node17as_CallStaticJavaEv(ptr noundef nonnull align 8 dereferenceable(52) %0) #1 comdat align 2 {
  %2 = alloca ptr, align 8
  store ptr %0, ptr %2, align 8
  %3 = load ptr, ptr %2, align 8
  ret ptr %3
}

; Function Attrs: mustprogress nounwind uwtable
define linkonce_odr hidden noundef zeroext i1 @_ZNK4Node17is_CallStaticJavaEv(ptr noundef nonnull align 8 dereferenceable(52) %0) #1 comdat align 2 {
  %2 = alloca ptr, align 8
  store ptr %0, ptr %2, align 8
  %3 = load ptr, ptr %2, align 8
  %4 = getelementptr inbounds %class.Node, ptr %3, i32 0, i32 8
  %5 = load i32, ptr %4, align 4
  %6 = and i32 %5, 31
  %7 = icmp eq i32 %6, 31
  ret i1 %7
}

; Function Attrs: mustprogress nounwind uwtable
define linkonce_odr hidden noundef ptr @_ZNK4Node8fast_outEPPS_(ptr noundef nonnull align 8 dereferenceable(52) %0, ptr noundef %1) #1 comdat align 2 {
  %3 = alloca ptr, align 8
  %4 = alloca ptr, align 8
  store ptr %0, ptr %3, align 8
  store ptr %1, ptr %4, align 8
  %5 = load ptr, ptr %4, align 8
  %6 = load ptr, ptr %5, align 8
  ret ptr %6
}

; Function Attrs: mustprogress nounwind uwtable
define linkonce_odr hidden noundef ptr @_ZNK4Node9fast_outsERPPS_(ptr noundef nonnull align 8 dereferenceable(52) %0, ptr noundef nonnull align 8 dereferenceable(8) %1) #1 comdat align 2 {
  %3 = alloca ptr, align 8
  %4 = alloca ptr, align 8
  %5 = alloca ptr, align 8
  store ptr %0, ptr %3, align 8
  store ptr %1, ptr %4, align 8
  %6 = load ptr, ptr %3, align 8
  %7 = getelementptr inbounds %class.Node, ptr %6, i32 0, i32 2
  %8 = load ptr, ptr %7, align 8
  store ptr %8, ptr %5, align 8
  %9 = load ptr, ptr %5, align 8
  %10 = getelementptr inbounds %class.Node, ptr %6, i32 0, i32 5
  %11 = load i32, ptr %10, align 8
  %12 = zext i32 %11 to i64
  %13 = getelementptr inbounds ptr, ptr %9, i64 %12
  %14 = load ptr, ptr %4, align 8
  store ptr %13, ptr %14, align 8
  %15 = load ptr, ptr %5, align 8
  ret ptr %15
}

; Function Attrs: mustprogress nounwind uwtable
define linkonce_odr hidden noundef ptr @_ZNK4Node9as_IfProjEv(ptr noundef nonnull align 8 dereferenceable(52) %0) #1 comdat align 2 {
  %2 = alloca ptr, align 8
  store ptr %0, ptr %2, align 8
  %3 = load ptr, ptr %2, align 8
  ret ptr %3
}

; Function Attrs: mustprogress nounwind uwtable
define linkonce_odr hidden noundef ptr @_ZNK4Node2inEj(ptr noundef nonnull align 8 dereferenceable(52) %0, i32 noundef %1) #1 comdat align 2 {
  %3 = alloca ptr, align 8
  %4 = alloca i32, align 4
  store ptr %0, ptr %3, align 8
  store i32 %1, ptr %4, align 4
  %5 = load ptr, ptr %3, align 8
  %6 = getelementptr inbounds %class.Node, ptr %5, i32 0, i32 1
  %7 = load ptr, ptr %6, align 8
  %8 = load i32, ptr %4, align 4
  %9 = zext i32 %8 to i64
  %10 = getelementptr inbounds ptr, ptr %7, i64 %9
  %11 = load ptr, ptr %10, align 8
  ret ptr %11
}

; Function Attrs: mustprogress nounwind uwtable
define hidden noundef ptr @_ZN14LibraryCallKit35get_uncommon_trap_from_success_projEP4Node(ptr noundef %0) #1 align 2 {
  %2 = alloca ptr, align 8
  %3 = alloca ptr, align 8
  %4 = alloca ptr, align 8
  %5 = alloca ptr, align 8
  %6 = alloca ptr, align 8
  %7 = alloca ptr, align 8
  store ptr %0, ptr %3, align 8
  %8 = load ptr, ptr %3, align 8
  %9 = call noundef zeroext i1 @_ZNK4Node9is_IfProjEv(ptr noundef nonnull align 8 dereferenceable(52) %8)
  br i1 %9, label %10, label %46

10:                                               ; preds = %1
  %11 = load ptr, ptr %3, align 8
  %12 = call noundef ptr @_ZNK4Node9as_IfProjEv(ptr noundef nonnull align 8 dereferenceable(52) %11)
  %13 = call noundef ptr @_ZNK8ProjNode13other_if_projEv(ptr noundef nonnull align 8 dereferenceable(57) %12)
  store ptr %13, ptr %4, align 8
  %14 = load ptr, ptr %4, align 8
  %15 = call noundef ptr @_ZNK4Node9fast_outsERPPS_(ptr noundef nonnull align 8 dereferenceable(52) %14, ptr noundef nonnull align 8 dereferenceable(8) %5)
  store ptr %15, ptr %6, align 8
  br label %16

16:                                               ; preds = %42, %10
  %17 = load ptr, ptr %6, align 8
  %18 = load ptr, ptr %5, align 8
  %19 = icmp ult ptr %17, %18
  br i1 %19, label %20, label %45

20:                                               ; preds = %16
  %21 = load ptr, ptr %4, align 8
  %22 = load ptr, ptr %6, align 8
  %23 = call noundef ptr @_ZNK4Node8fast_outEPPS_(ptr noundef nonnull align 8 dereferenceable(52) %21, ptr noundef %22)
  store ptr %23, ptr %7, align 8
  %24 = load ptr, ptr %7, align 8
  %25 = call noundef ptr @_ZNK4Node2inEj(ptr noundef nonnull align 8 dereferenceable(52) %24, i32 noundef 0)
  %26 = load ptr, ptr %4, align 8
  %27 = icmp eq ptr %25, %26
  br i1 %27, label %28, label %41

28:                                               ; preds = %20
  %29 = load ptr, ptr %7, align 8
  %30 = call noundef zeroext i1 @_ZNK4Node17is_CallStaticJavaEv(ptr noundef nonnull align 8 dereferenceable(52) %29)
  br i1 %30, label %31, label %41

31:                                               ; preds = %28
  %32 = load ptr, ptr %7, align 8
  %33 = call noundef ptr @_ZNK4Node17as_CallStaticJavaEv(ptr noundef nonnull align 8 dereferenceable(52) %32)
  %34 = call noundef ptr @_ZNK8CallNode11entry_pointEv(ptr noundef nonnull align 8 dereferenceable(128) %33)
  %35 = call noundef ptr @_ZN13SharedRuntime18uncommon_trap_blobEv()
  %36 = call noundef ptr @_ZN13SingletonBlob11entry_pointEv(ptr noundef nonnull align 8 dereferenceable(54) %35)
  %37 = icmp eq ptr %34, %36
  br i1 %37, label %38, label %41

38:                                               ; preds = %31
  %39 = load ptr, ptr %7, align 8
  %40 = call noundef ptr @_ZNK4Node17as_CallStaticJavaEv(ptr noundef nonnull align 8 dereferenceable(52) %39)
  store ptr %40, ptr %2, align 8
  br label %47

41:                                               ; preds = %31, %28, %20
  br label %42

42:                                               ; preds = %41
  %43 = load ptr, ptr %6, align 8
  %44 = getelementptr inbounds ptr, ptr %43, i32 1
  store ptr %44, ptr %6, align 8
  br label %16, !llvm.loop !19

45:                                               ; preds = %16
  br label %46

46:                                               ; preds = %45, %1
  store ptr null, ptr %2, align 8
  br label %47

47:                                               ; preds = %46, %38
  %48 = load ptr, ptr %2, align 8
  ret ptr %48
}

; Function Attrs: mustprogress nounwind uwtable
define linkonce_odr hidden noundef zeroext i1 @_ZNK4Node9is_IfProjEv(ptr noundef nonnull align 8 dereferenceable(52) %0) #1 comdat align 2 {
  %2 = alloca ptr, align 8
  store ptr %0, ptr %2, align 8
  %3 = load ptr, ptr %2, align 8
  %4 = getelementptr inbounds %class.Node, ptr %3, i32 0, i32 8
  %5 = load i32, ptr %4, align 4
  %6 = and i32 %5, 127
  %7 = icmp eq i32 %6, 72
  ret i1 %7
}

; Function Attrs: mustprogress nounwind uwtable
define linkonce_odr hidden noundef ptr @_ZNK13SafePointNode7controlEv(ptr noundef nonnull align 8 dereferenceable(81) %0) #1 comdat align 2 {
  %2 = alloca ptr, align 8
  store ptr %0, ptr %2, align 8
  %3 = load ptr, ptr %2, align 8
  %4 = call noundef ptr @_ZNK4Node2inEj(ptr noundef nonnull align 8 dereferenceable(52) %3, i32 noundef 0)
  ret ptr %4
}

; Function Attrs: mustprogress nounwind uwtable
define linkonce_odr hidden noundef ptr @_ZNK8JVMState3mapEv(ptr noundef nonnull align 8 dereferenceable(64) %0) #1 comdat align 2 {
  %2 = alloca ptr, align 8
  store ptr %0, ptr %2, align 8
  %3 = load ptr, ptr %2, align 8
  %4 = getelementptr inbounds %class.JVMState, ptr %3, i32 0, i32 11
  %5 = load ptr, ptr %4, align 8
  ret ptr %5
}

; Function Attrs: mustprogress nounwind uwtable
define hidden void @_ZN14LibraryCallKit49replace_unrelated_uncommon_traps_with_alloc_stateEP8JVMState(ptr noundef nonnull align 8 dereferenceable(108) %0, ptr noundef %1) #1 align 2 {
  %3 = alloca ptr, align 8
  %4 = alloca ptr, align 8
  %5 = alloca ptr, align 8
  %6 = alloca ptr, align 8
  store ptr %0, ptr %3, align 8
  store ptr %1, ptr %4, align 8
  %7 = load ptr, ptr %3, align 8
  %8 = load ptr, ptr %4, align 8
  %9 = call noundef ptr @_ZNK8JVMState3mapEv(ptr noundef nonnull align 8 dereferenceable(64) %8)
  %10 = call noundef ptr @_ZNK13SafePointNode7controlEv(ptr noundef nonnull align 8 dereferenceable(81) %9)
  store ptr %10, ptr %5, align 8
  br label %11

11:                                               ; preds = %21, %2
  %12 = load ptr, ptr %5, align 8
  %13 = call noundef zeroext i1 @_ZNK4Node9is_IfProjEv(ptr noundef nonnull align 8 dereferenceable(52) %12)
  br i1 %13, label %14, label %25

14:                                               ; preds = %11
  %15 = load ptr, ptr %5, align 8
  %16 = call noundef ptr @_ZN14LibraryCallKit35get_uncommon_trap_from_success_projEP4Node(ptr noundef %15)
  store ptr %16, ptr %6, align 8
  %17 = load ptr, ptr %6, align 8
  %18 = icmp ne ptr %17, null
  br i1 %18, label %19, label %21

19:                                               ; preds = %14
  %20 = load ptr, ptr %6, align 8
  call void @_ZN14LibraryCallKit24create_new_uncommon_trapEP18CallStaticJavaNode(ptr noundef nonnull align 8 dereferenceable(108) %7, ptr noundef %20)
  br label %21

21:                                               ; preds = %19, %14
  %22 = load ptr, ptr %5, align 8
  %23 = call noundef ptr @_ZNK4Node2inEj(ptr noundef nonnull align 8 dereferenceable(52) %22, i32 noundef 0)
  %24 = call noundef ptr @_ZNK4Node2inEj(ptr noundef nonnull align 8 dereferenceable(52) %23, i32 noundef 0)
  store ptr %24, ptr %5, align 8
  br label %11, !llvm.loop !18

25:                                               ; preds = %11
  ret void
}