; Function Attrs: mustprogress nounwind uwtable
define hidden void @_ZN14LibraryCallKit49replace_unrelated_uncommon_traps_with_alloc_stateEP8JVMState(ptr noundef nonnull align 8 dereferenceable(108) %0, ptr nocapture noundef readonly %1) local_unnamed_addr #0 align 2 {
  %3 = getelementptr inbounds i8, ptr %1, i64 56
  %.pn11 = load ptr, ptr %3, align 8
  %.0.in.in12 = getelementptr inbounds i8, ptr %.pn11, i64 8
  %.0.in13 = load ptr, ptr %.0.in.in12, align 8
  %.014 = load ptr, ptr %.0.in13, align 8
  %4 = getelementptr inbounds i8, ptr %.014, i64 44
  %5 = load i32, ptr %4, align 4
  %6 = and i32 %5, 127
  %7 = icmp eq i32 %6, 72
  br i1 %7, label %.lr.ph, label %._crit_edge

.lr.ph:                                           ; preds = %2, %_ZN14LibraryCallKit35get_uncommon_trap_from_success_projEP4Node.exit.thread
  %.015 = phi ptr [ %.0, %_ZN14LibraryCallKit35get_uncommon_trap_from_success_projEP4Node.exit.thread ], [ %.014, %2 ]
  %8 = tail call noundef ptr @_ZNK8ProjNode13other_if_projEv(ptr noundef nonnull align 8 dereferenceable(57) %.015) #13
  %9 = getelementptr inbounds i8, ptr %8, i64 16
  %10 = load ptr, ptr %9, align 8
  %11 = getelementptr inbounds i8, ptr %8, i64 32
  %12 = load i32, ptr %11, align 8
  %13 = zext i32 %12 to i64
  %14 = getelementptr inbounds ptr, ptr %10, i64 %13
  %.not.i = icmp eq i32 %12, 0
  br i1 %.not.i, label %_ZN14LibraryCallKit35get_uncommon_trap_from_success_projEP4Node.exit.thread, label %.lr.ph.i

.lr.ph.i:                                         ; preds = %.lr.ph
  %15 = load ptr, ptr @_ZN13SharedRuntime19_uncommon_trap_blobE, align 8
  %16 = getelementptr inbounds i8, ptr %15, i64 36
  br label %17

17:                                               ; preds = %35, %.lr.ph.i
  %.01314.i = phi ptr [ %10, %.lr.ph.i ], [ %36, %35 ]
  %18 = load ptr, ptr %.01314.i, align 8
  %19 = getelementptr inbounds i8, ptr %18, i64 8
  %20 = load ptr, ptr %19, align 8
  %21 = load ptr, ptr %20, align 8
  %22 = icmp eq ptr %21, %8
  br i1 %22, label %23, label %35

23:                                               ; preds = %17
  %24 = getelementptr inbounds i8, ptr %18, i64 44
  %25 = load i32, ptr %24, align 4
  %26 = and i32 %25, 31
  %27 = icmp eq i32 %26, 31
  br i1 %27, label %28, label %35

28:                                               ; preds = %23
  %29 = getelementptr inbounds i8, ptr %18, i64 96
  %30 = load ptr, ptr %29, align 8
  %31 = load i32, ptr %16, align 4
  %32 = sext i32 %31 to i64
  %33 = getelementptr inbounds i8, ptr %15, i64 %32
  %34 = icmp eq ptr %30, %33
  br i1 %34, label %_ZN14LibraryCallKit35get_uncommon_trap_from_success_projEP4Node.exit, label %35

35:                                               ; preds = %28, %23, %17
  %36 = getelementptr inbounds i8, ptr %.01314.i, i64 8
  %37 = icmp ult ptr %36, %14
  br i1 %37, label %17, label %_ZN14LibraryCallKit35get_uncommon_trap_from_success_projEP4Node.exit.thread, !llvm.loop !16

_ZN14LibraryCallKit35get_uncommon_trap_from_success_projEP4Node.exit: ; preds = %28
  tail call void @_ZN14LibraryCallKit24create_new_uncommon_trapEP18CallStaticJavaNode(ptr noundef nonnull align 8 dereferenceable(108) %0, ptr noundef nonnull %18)
  br label %_ZN14LibraryCallKit35get_uncommon_trap_from_success_projEP4Node.exit.thread

_ZN14LibraryCallKit35get_uncommon_trap_from_success_projEP4Node.exit.thread: ; preds = %35, %.lr.ph, %_ZN14LibraryCallKit35get_uncommon_trap_from_success_projEP4Node.exit
  %38 = getelementptr inbounds i8, ptr %.015, i64 8
  %39 = load ptr, ptr %38, align 8
  %.pn = load ptr, ptr %39, align 8
  %.0.in.in = getelementptr inbounds i8, ptr %.pn, i64 8
  %.0.in = load ptr, ptr %.0.in.in, align 8
  %.0 = load ptr, ptr %.0.in, align 8
  %40 = getelementptr inbounds i8, ptr %.0, i64 44
  %41 = load i32, ptr %40, align 4
  %42 = and i32 %41, 127
  %43 = icmp eq i32 %42, 72
  br i1 %43, label %.lr.ph, label %._crit_edge, !llvm.loop !23

._crit_edge:                                      ; preds = %_ZN14LibraryCallKit35get_uncommon_trap_from_success_projEP4Node.exit.thread, %2
  ret void
}